target datalayout = "e-m:e-p270:32:32-p271:32:32-p272:64:64-i64:64-i128:128-f80:128-n8:16:32:64-S128"
target triple = "x86_64-pc-linux-gnu"

%struct.anon.3 = type { i32, i32, i32 }
%struct.MultiXactMember = type { i32, i32 }

@tupleLockExtraInfo = internal constant [4 x %struct.anon.3] [%struct.anon.3 { i32 1, i32 0, i32 -1 }, %struct.anon.3 { i32 2, i32 1, i32 -1 }, %struct.anon.3 { i32 7, i32 2, i32 4 }, %struct.anon.3 { i32 8, i32 3, i32 5 }], align 16
@MultiXactStatusLock = internal constant [6 x i32] [i32 0, i32 1, i32 2, i32 3, i32 2, i32 3], align 16

; Function Attrs: inlinehint nounwind uwtable
define internal zeroext i1 @HEAP_XMAX_IS_LOCKED_ONLY(i16 noundef zeroext %0) #3 {
  %2 = alloca i16, align 2
  store i16 %0, ptr %2, align 2
  %3 = load i16, ptr %2, align 2
  %4 = zext i16 %3 to i32
  %5 = and i32 %4, 128
  %6 = icmp ne i32 %5, 0
  br i1 %6, label %12, label %7

7:                                                ; preds = %1
  %8 = load i16, ptr %2, align 2
  %9 = zext i16 %8 to i32
  %10 = and i32 %9, 4176
  %11 = icmp eq i32 %10, 64
  br label %12

12:                                               ; preds = %7, %1
  %13 = phi i1 [ true, %1 ], [ %11, %7 ]
  ret i1 %13
}

; Function Attrs: inlinehint nounwind uwtable
define internal zeroext i1 @HEAP_LOCKED_UPGRADED(i16 noundef zeroext %0) #3 {
  %2 = alloca i16, align 2
  store i16 %0, ptr %2, align 2
  %3 = load i16, ptr %2, align 2
  %4 = zext i16 %3 to i32
  %5 = and i32 %4, 4096
  %6 = icmp ne i32 %5, 0
  br i1 %6, label %7, label %17

7:                                                ; preds = %1
  %8 = load i16, ptr %2, align 2
  %9 = zext i16 %8 to i32
  %10 = and i32 %9, 128
  %11 = icmp ne i32 %10, 0
  br i1 %11, label %12, label %17

12:                                               ; preds = %7
  %13 = load i16, ptr %2, align 2
  %14 = zext i16 %13 to i32
  %15 = and i32 %14, 80
  %16 = icmp eq i32 %15, 0
  br label %17

17:                                               ; preds = %12, %7, %1
  %18 = phi i1 [ false, %7 ], [ false, %1 ], [ %16, %12 ]
  ret i1 %18
}

; Function Attrs: nounwind uwtable
define internal zeroext i1 @Do_MultiXactIdWait(i32 noundef %0, i32 noundef %1, i16 noundef zeroext %2, i1 noundef zeroext %3, ptr noundef %4, ptr noundef %5, i32 noundef %6, ptr noundef %7) #0 {
  %9 = alloca i32, align 4
  %10 = alloca i32, align 4
  %11 = alloca i16, align 2
  %12 = alloca i8, align 1
  %13 = alloca ptr, align 8
  %14 = alloca ptr, align 8
  %15 = alloca i32, align 4
  %16 = alloca ptr, align 8
  %17 = alloca i8, align 1
  %18 = alloca ptr, align 8
  %19 = alloca i32, align 4
  %20 = alloca i32, align 4
  %21 = alloca i32, align 4
  %22 = alloca i32, align 4
  %23 = alloca i32, align 4
  %24 = alloca i32, align 4
  store i32 %0, ptr %9, align 4
  store i32 %1, ptr %10, align 4
  store i16 %2, ptr %11, align 2
  %25 = zext i1 %3 to i8
  store i8 %25, ptr %12, align 1
  store ptr %4, ptr %13, align 8
  store ptr %5, ptr %14, align 8
  store i32 %6, ptr %15, align 4
  store ptr %7, ptr %16, align 8
  call void @llvm.lifetime.start.p0(i64 1, ptr %17) #10
  store i8 1, ptr %17, align 1
  call void @llvm.lifetime.start.p0(i64 8, ptr %18) #10
  call void @llvm.lifetime.start.p0(i64 4, ptr %19) #10
  call void @llvm.lifetime.start.p0(i64 4, ptr %20) #10
  store i32 0, ptr %20, align 4
  %26 = load i16, ptr %11, align 2
  %27 = call zeroext i1 @HEAP_LOCKED_UPGRADED(i16 noundef zeroext %26)
  br i1 %27, label %28, label %29

28:                                               ; preds = %8
  br label %34

29:                                               ; preds = %8
  %30 = load i32, ptr %9, align 4
  %31 = load i16, ptr %11, align 2
  %32 = call zeroext i1 @HEAP_XMAX_IS_LOCKED_ONLY(i16 noundef zeroext %31)
  %33 = call i32 @GetMultiXactIdMembers(i32 noundef %30, ptr noundef %18, i1 noundef zeroext false, i1 noundef zeroext %32)
  br label %34

34:                                               ; preds = %29, %28
  %35 = phi i32 [ -1, %28 ], [ %33, %29 ]
  store i32 %35, ptr %19, align 4
  %36 = load i32, ptr %19, align 4
  %37 = icmp sge i32 %36, 0
  br i1 %37, label %38, label %114

38:                                               ; preds = %34
  call void @llvm.lifetime.start.p0(i64 4, ptr %21) #10
  store i32 0, ptr %21, align 4
  br label %39

39:                                               ; preds = %109, %38
  %40 = load i32, ptr %21, align 4
  %41 = load i32, ptr %19, align 4
  %42 = icmp slt i32 %40, %41
  br i1 %42, label %43, label %112

43:                                               ; preds = %39
  call void @llvm.lifetime.start.p0(i64 4, ptr %22) #10
  %44 = load ptr, ptr %18, align 8
  %45 = load i32, ptr %21, align 4
  %46 = sext i32 %45 to i64
  %47 = getelementptr inbounds %struct.MultiXactMember, ptr %44, i64 %46
  %48 = getelementptr inbounds nuw %struct.MultiXactMember, ptr %47, i32 0, i32 0
  %49 = load i32, ptr %48, align 4
  store i32 %49, ptr %22, align 4
  call void @llvm.lifetime.start.p0(i64 4, ptr %23) #10
  %50 = load ptr, ptr %18, align 8
  %51 = load i32, ptr %21, align 4
  %52 = sext i32 %51 to i64
  %53 = getelementptr inbounds %struct.MultiXactMember, ptr %50, i64 %52
  %54 = getelementptr inbounds nuw %struct.MultiXactMember, ptr %53, i32 0, i32 1
  %55 = load i32, ptr %54, align 4
  store i32 %55, ptr %23, align 4
  %56 = load i32, ptr %22, align 4
  %57 = call zeroext i1 @TransactionIdIsCurrentTransactionId(i32 noundef %56)
  br i1 %57, label %58, label %61

58:                                               ; preds = %43
  %59 = load i32, ptr %20, align 4
  %60 = add i32 %59, 1
  store i32 %60, ptr %20, align 4
  store i32 4, ptr %24, align 4
  br label %106

61:                                               ; preds = %43
  %62 = load i32, ptr %23, align 4
  %63 = zext i32 %62 to i64
  %64 = getelementptr inbounds nuw [6 x i32], ptr @MultiXactStatusLock, i64 0, i64 %63
  %65 = load i32, ptr %64, align 4
  %66 = sext i32 %65 to i64
  %67 = getelementptr inbounds [4 x %struct.anon.3], ptr @tupleLockExtraInfo, i64 0, i64 %66
  %68 = getelementptr inbounds nuw %struct.anon.3, ptr %67, i32 0, i32 0
  %69 = load i32, ptr %68, align 4
  %70 = load i32, ptr %10, align 4
  %71 = zext i32 %70 to i64
  %72 = getelementptr inbounds nuw [6 x i32], ptr @MultiXactStatusLock, i64 0, i64 %71
  %73 = load i32, ptr %72, align 4
  %74 = sext i32 %73 to i64
  %75 = getelementptr inbounds [4 x %struct.anon.3], ptr @tupleLockExtraInfo, i64 0, i64 %74
  %76 = getelementptr inbounds nuw %struct.anon.3, ptr %75, i32 0, i32 0
  %77 = load i32, ptr %76, align 4
  %78 = call zeroext i1 @DoLockModesConflict(i32 noundef %69, i32 noundef %77)
  br i1 %78, label %89, label %79

79:                                               ; preds = %61
  %80 = load ptr, ptr %16, align 8
  %81 = icmp ne ptr %80, null
  br i1 %81, label %82, label %88

82:                                               ; preds = %79
  %83 = load i32, ptr %22, align 4
  %84 = call zeroext i1 @TransactionIdIsInProgress(i32 noundef %83)
  br i1 %84, label %85, label %88

85:                                               ; preds = %82
  %86 = load i32, ptr %20, align 4
  %87 = add i32 %86, 1
  store i32 %87, ptr %20, align 4
  br label %88

88:                                               ; preds = %85, %82, %79
  store i32 4, ptr %24, align 4
  br label %106

89:                                               ; preds = %61
  %90 = load i8, ptr %12, align 1, !range !4, !noundef !5
  %91 = trunc i8 %90 to i1
  br i1 %91, label %92, label %100

92:                                               ; preds = %89
  %93 = load i32, ptr %22, align 4
  %94 = call zeroext i1 @ConditionalXactLockTableWait(i32 noundef %93)
  %95 = zext i1 %94 to i8
  store i8 %95, ptr %17, align 1
  %96 = load i8, ptr %17, align 1, !range !4, !noundef !5
  %97 = trunc i8 %96 to i1
  br i1 %97, label %99, label %98

98:                                               ; preds = %92
  store i32 2, ptr %24, align 4
  br label %106

99:                                               ; preds = %92
  br label %105

100:                                              ; preds = %89
  %101 = load i32, ptr %22, align 4
  %102 = load ptr, ptr %13, align 8
  %103 = load ptr, ptr %14, align 8
  %104 = load i32, ptr %15, align 4
  call void @XactLockTableWait(i32 noundef %101, ptr noundef %102, ptr noundef %103, i32 noundef %104)
  br label %105

105:                                              ; preds = %100, %99
  store i32 0, ptr %24, align 4
  br label %106

106:                                              ; preds = %105, %98, %88, %58
  call void @llvm.lifetime.end.p0(i64 4, ptr %23) #10
  call void @llvm.lifetime.end.p0(i64 4, ptr %22) #10
  %107 = load i32, ptr %24, align 4
  switch i32 %107, label %123 [
    i32 0, label %108
    i32 4, label %109
    i32 2, label %112
  ]

108:                                              ; preds = %106
  br label %109

109:                                              ; preds = %108, %106
  %110 = load i32, ptr %21, align 4
  %111 = add i32 %110, 1
  store i32 %111, ptr %21, align 4
  br label %39, !llvm.loop !40

112:                                              ; preds = %106, %39
  %113 = load ptr, ptr %18, align 8
  call void @pfree(ptr noundef %113)
  call void @llvm.lifetime.end.p0(i64 4, ptr %21) #10
  br label %114

114:                                              ; preds = %112, %34
  %115 = load ptr, ptr %16, align 8
  %116 = icmp ne ptr %115, null
  br i1 %116, label %117, label %120

117:                                              ; preds = %114
  %118 = load i32, ptr %20, align 4
  %119 = load ptr, ptr %16, align 8
  store i32 %118, ptr %119, align 4
  br label %120

120:                                              ; preds = %117, %114
  %121 = load i8, ptr %17, align 1, !range !4, !noundef !5
  %122 = trunc i8 %121 to i1
  store i32 1, ptr %24, align 4
  call void @llvm.lifetime.end.p0(i64 4, ptr %20) #10
  call void @llvm.lifetime.end.p0(i64 4, ptr %19) #10
  call void @llvm.lifetime.end.p0(i64 8, ptr %18) #10
  call void @llvm.lifetime.end.p0(i64 1, ptr %17) #10
  ret i1 %122

123:                                              ; preds = %106
  unreachable
}