; Function Attrs: nounwind uwtable
define internal fastcc noundef zeroext i1 @Do_MultiXactIdWait(i32 noundef %0, i32 noundef range(i32 0, 6) %1, i16 noundef zeroext %2, i1 noundef zeroext %3, ptr noundef %4, ptr noundef %5, i32 noundef range(i32 0, 4) %6, ptr noundef writeonly captures(address_is_null) %7) unnamed_addr #2 {
  %9 = alloca ptr, align 8
  call void @llvm.lifetime.start.p0(i64 8, ptr nonnull %9) #13
  %10 = and i16 %2, 4304
  %11 = icmp eq i16 %10, 4224
  br i1 %11, label %.thread, label %12

12:                                               ; preds = %8
  %13 = zext i16 %2 to i32
  %14 = and i32 %13, 128
  %15 = icmp ne i32 %14, 0
  %16 = and i32 %13, 4176
  %17 = icmp eq i32 %16, 64
  %18 = or i1 %15, %17
  %19 = call i32 @GetMultiXactIdMembers(i32 noundef %0, ptr noundef nonnull %9, i1 noundef zeroext false, i1 noundef zeroext %18) #13
  %20 = icmp sgt i32 %19, -1
  br i1 %20, label %.preheader, label %.thread

.preheader:                                       ; preds = %12
  %.not67 = icmp eq i32 %19, 0
  br i1 %.not67, label %._crit_edge, label %.lr.ph

.lr.ph:                                           ; preds = %.preheader
  %21 = zext nneg i32 %1 to i64
  %22 = getelementptr inbounds nuw [6 x i32], ptr @MultiXactStatusLock, i64 0, i64 %21
  %.not = icmp eq ptr %7, null
  %wide.trip.count87 = zext nneg i32 %19 to i64
  br i1 %3, label %.lr.ph.split.us, label %.lr.ph.split

.lr.ph.split.us:                                  ; preds = %.lr.ph
  br i1 %.not, label %.lr.ph.split.us.split.us, label %.lr.ph.split.us.split

.lr.ph.split.us.split.us:                         ; preds = %.lr.ph.split.us, %.thread38.us.us
  %indvars.iv84 = phi i64 [ %indvars.iv.next85, %.thread38.us.us ], [ 0, %.lr.ph.split.us ]
  %.12947.us.us = phi i32 [ %.33144.us.us, %.thread38.us.us ], [ 0, %.lr.ph.split.us ]
  %23 = load ptr, ptr %9, align 8
  %24 = getelementptr inbounds nuw %struct.MultiXactMember, ptr %23, i64 %indvars.iv84
  %25 = load i32, ptr %24, align 4
  %26 = getelementptr inbounds nuw i8, ptr %24, i64 4
  %27 = load i32, ptr %26, align 4
  %28 = call zeroext i1 @TransactionIdIsCurrentTransactionId(i32 noundef %25) #13
  br i1 %28, label %43, label %29

29:                                               ; preds = %.lr.ph.split.us.split.us
  %30 = zext i32 %27 to i64
  %31 = getelementptr inbounds nuw [6 x i32], ptr @MultiXactStatusLock, i64 0, i64 %30
  %32 = load i32, ptr %31, align 4
  %33 = sext i32 %32 to i64
  %34 = getelementptr inbounds [4 x %struct.anon.3], ptr @tupleLockExtraInfo, i64 0, i64 %33
  %35 = load i32, ptr %34, align 4
  %36 = load i32, ptr %22, align 4
  %37 = sext i32 %36 to i64
  %38 = getelementptr inbounds [4 x %struct.anon.3], ptr @tupleLockExtraInfo, i64 0, i64 %37
  %39 = load i32, ptr %38, align 4
  %40 = call zeroext i1 @DoLockModesConflict(i32 noundef %35, i32 noundef %39) #13
  br i1 %40, label %41, label %.thread38.us.us

41:                                               ; preds = %29
  %42 = call zeroext i1 @ConditionalXactLockTableWait(i32 noundef %25) #13
  br i1 %42, label %.thread38.us.us, label %._crit_edge

43:                                               ; preds = %.lr.ph.split.us.split.us
  %44 = add i32 %.12947.us.us, 1
  br label %.thread38.us.us

.thread38.us.us:                                  ; preds = %29, %43, %41
  %.33144.us.us = phi i32 [ %.12947.us.us, %41 ], [ %44, %43 ], [ %.12947.us.us, %29 ]
  %indvars.iv.next85 = add nuw nsw i64 %indvars.iv84, 1
  %exitcond88.not = icmp eq i64 %indvars.iv.next85, %wide.trip.count87
  br i1 %exitcond88.not, label %._crit_edge, label %.lr.ph.split.us.split.us, !llvm.loop !45

.lr.ph.split.us.split:                            ; preds = %.lr.ph.split.us, %.thread38.us
  %indvars.iv79 = phi i64 [ %indvars.iv.next80, %.thread38.us ], [ 0, %.lr.ph.split.us ]
  %.12947.us = phi i32 [ %.33144.us, %.thread38.us ], [ 0, %.lr.ph.split.us ]
  %45 = load ptr, ptr %9, align 8
  %46 = getelementptr inbounds nuw %struct.MultiXactMember, ptr %45, i64 %indvars.iv79
  %47 = load i32, ptr %46, align 4
  %48 = getelementptr inbounds nuw i8, ptr %46, i64 4
  %49 = load i32, ptr %48, align 4
  %50 = call zeroext i1 @TransactionIdIsCurrentTransactionId(i32 noundef %47) #13
  br i1 %50, label %68, label %51

51:                                               ; preds = %.lr.ph.split.us.split
  %52 = zext i32 %49 to i64
  %53 = getelementptr inbounds nuw [6 x i32], ptr @MultiXactStatusLock, i64 0, i64 %52
  %54 = load i32, ptr %53, align 4
  %55 = sext i32 %54 to i64
  %56 = getelementptr inbounds [4 x %struct.anon.3], ptr @tupleLockExtraInfo, i64 0, i64 %55
  %57 = load i32, ptr %56, align 4
  %58 = load i32, ptr %22, align 4
  %59 = sext i32 %58 to i64
  %60 = getelementptr inbounds [4 x %struct.anon.3], ptr @tupleLockExtraInfo, i64 0, i64 %59
  %61 = load i32, ptr %60, align 4
  %62 = call zeroext i1 @DoLockModesConflict(i32 noundef %57, i32 noundef %61) #13
  br i1 %62, label %66, label %63

63:                                               ; preds = %51
  %64 = call zeroext i1 @TransactionIdIsInProgress(i32 noundef %47) #13
  %65 = zext i1 %64 to i32
  %spec.select.us = add i32 %.12947.us, %65
  br label %.thread38.us

66:                                               ; preds = %51
  %67 = call zeroext i1 @ConditionalXactLockTableWait(i32 noundef %47) #13
  br i1 %67, label %.thread38.us, label %._crit_edge

68:                                               ; preds = %.lr.ph.split.us.split
  %69 = add i32 %.12947.us, 1
  br label %.thread38.us

.thread38.us:                                     ; preds = %68, %66, %63
  %.33144.us = phi i32 [ %.12947.us, %66 ], [ %69, %68 ], [ %spec.select.us, %63 ]
  %indvars.iv.next80 = add nuw nsw i64 %indvars.iv79, 1
  %exitcond83.not = icmp eq i64 %indvars.iv.next80, %wide.trip.count87
  br i1 %exitcond83.not, label %._crit_edge, label %.lr.ph.split.us.split, !llvm.loop !45

.lr.ph.split:                                     ; preds = %.lr.ph
  br i1 %.not, label %.lr.ph.split.split.us, label %.lr.ph.split.split

.lr.ph.split.split.us:                            ; preds = %.lr.ph.split, %.thread38.us58
  %indvars.iv74 = phi i64 [ %indvars.iv.next75, %.thread38.us58 ], [ 0, %.lr.ph.split ]
  %.12947.us56 = phi i32 [ %.33144.us59, %.thread38.us58 ], [ 0, %.lr.ph.split ]
  %70 = load ptr, ptr %9, align 8
  %71 = getelementptr inbounds nuw %struct.MultiXactMember, ptr %70, i64 %indvars.iv74
  %72 = load i32, ptr %71, align 4
  %73 = getelementptr inbounds nuw i8, ptr %71, i64 4
  %74 = load i32, ptr %73, align 4
  %75 = call zeroext i1 @TransactionIdIsCurrentTransactionId(i32 noundef %72) #13
  br i1 %75, label %89, label %76

76:                                               ; preds = %.lr.ph.split.split.us
  %77 = zext i32 %74 to i64
  %78 = getelementptr inbounds nuw [6 x i32], ptr @MultiXactStatusLock, i64 0, i64 %77
  %79 = load i32, ptr %78, align 4
  %80 = sext i32 %79 to i64
  %81 = getelementptr inbounds [4 x %struct.anon.3], ptr @tupleLockExtraInfo, i64 0, i64 %80
  %82 = load i32, ptr %81, align 4
  %83 = load i32, ptr %22, align 4
  %84 = sext i32 %83 to i64
  %85 = getelementptr inbounds [4 x %struct.anon.3], ptr @tupleLockExtraInfo, i64 0, i64 %84
  %86 = load i32, ptr %85, align 4
  %87 = call zeroext i1 @DoLockModesConflict(i32 noundef %82, i32 noundef %86) #13
  br i1 %87, label %88, label %.thread38.us58

88:                                               ; preds = %76
  call void @XactLockTableWait(i32 noundef %72, ptr noundef %4, ptr noundef %5, i32 noundef %6) #13
  br label %.thread38.us58

89:                                               ; preds = %.lr.ph.split.split.us
  %90 = add i32 %.12947.us56, 1
  br label %.thread38.us58

.thread38.us58:                                   ; preds = %76, %89, %88
  %.33144.us59 = phi i32 [ %90, %89 ], [ %.12947.us56, %88 ], [ %.12947.us56, %76 ]
  %indvars.iv.next75 = add nuw nsw i64 %indvars.iv74, 1
  %exitcond78.not = icmp eq i64 %indvars.iv.next75, %wide.trip.count87
  br i1 %exitcond78.not, label %._crit_edge, label %.lr.ph.split.split.us, !llvm.loop !45

.lr.ph.split.split:                               ; preds = %.lr.ph.split, %.thread38
  %indvars.iv = phi i64 [ %indvars.iv.next, %.thread38 ], [ 0, %.lr.ph.split ]
  %.12947 = phi i32 [ %.33144, %.thread38 ], [ 0, %.lr.ph.split ]
  %91 = load ptr, ptr %9, align 8
  %92 = getelementptr inbounds nuw %struct.MultiXactMember, ptr %91, i64 %indvars.iv
  %93 = load i32, ptr %92, align 4
  %94 = getelementptr inbounds nuw i8, ptr %92, i64 4
  %95 = load i32, ptr %94, align 4
  %96 = call zeroext i1 @TransactionIdIsCurrentTransactionId(i32 noundef %93) #13
  br i1 %96, label %97, label %99

97:                                               ; preds = %.lr.ph.split.split
  %98 = add i32 %.12947, 1
  br label %.thread38

99:                                               ; preds = %.lr.ph.split.split
  %100 = zext i32 %95 to i64
  %101 = getelementptr inbounds nuw [6 x i32], ptr @MultiXactStatusLock, i64 0, i64 %100
  %102 = load i32, ptr %101, align 4
  %103 = sext i32 %102 to i64
  %104 = getelementptr inbounds [4 x %struct.anon.3], ptr @tupleLockExtraInfo, i64 0, i64 %103
  %105 = load i32, ptr %104, align 4
  %106 = load i32, ptr %22, align 4
  %107 = sext i32 %106 to i64
  %108 = getelementptr inbounds [4 x %struct.anon.3], ptr @tupleLockExtraInfo, i64 0, i64 %107
  %109 = load i32, ptr %108, align 4
  %110 = call zeroext i1 @DoLockModesConflict(i32 noundef %105, i32 noundef %109) #13
  br i1 %110, label %114, label %111

111:                                              ; preds = %99
  %112 = call zeroext i1 @TransactionIdIsInProgress(i32 noundef %93) #13
  %113 = zext i1 %112 to i32
  %spec.select = add i32 %.12947, %113
  br label %.thread38

114:                                              ; preds = %99
  call void @XactLockTableWait(i32 noundef %93, ptr noundef %4, ptr noundef %5, i32 noundef %6) #13
  br label %.thread38

.thread38:                                        ; preds = %114, %111, %97
  %.33144 = phi i32 [ %98, %97 ], [ %spec.select, %111 ], [ %.12947, %114 ]
  %indvars.iv.next = add nuw nsw i64 %indvars.iv, 1
  %exitcond.not = icmp eq i64 %indvars.iv.next, %wide.trip.count87
  br i1 %exitcond.not, label %._crit_edge, label %.lr.ph.split.split, !llvm.loop !45

._crit_edge:                                      ; preds = %.thread38, %.thread38.us58, %.thread38.us, %66, %.thread38.us.us, %41, %.preheader
  %.129.lcssa = phi i32 [ 0, %.preheader ], [ %.12947.us.us, %41 ], [ %.33144.us.us, %.thread38.us.us ], [ %.12947.us, %66 ], [ %.33144.us, %.thread38.us ], [ %.33144.us59, %.thread38.us58 ], [ %.33144, %.thread38 ]
  %.2 = phi i1 [ true, %.preheader ], [ false, %41 ], [ true, %.thread38.us.us ], [ false, %66 ], [ true, %.thread38.us ], [ true, %.thread38.us58 ], [ true, %.thread38 ]
  %115 = load ptr, ptr %9, align 8
  call void @pfree(ptr noundef %115) #13
  br label %.thread

.thread:                                          ; preds = %8, %._crit_edge, %12
  %.028 = phi i32 [ %.129.lcssa, %._crit_edge ], [ 0, %12 ], [ 0, %8 ]
  %.027 = phi i1 [ %.2, %._crit_edge ], [ true, %12 ], [ true, %8 ]
  %.not36 = icmp eq ptr %7, null
  br i1 %.not36, label %117, label %116

116:                                              ; preds = %.thread
  store i32 %.028, ptr %7, align 4
  br label %117

117:                                              ; preds = %116, %.thread
  call void @llvm.lifetime.end.p0(i64 8, ptr nonnull %9) #13
  ret i1 %.027
}